target datalayout = "e-m:e-p270:32:32-p271:32:32-p272:64:64-i64:64-i128:128-f80:128-n8:16:32:64-S128"
target triple = "x86_64-pc-linux-gnu"

%"class.Eigen::PlainObjectBase.144" = type { %"class.Eigen::DenseStorage.151" }
%"class.Eigen::DenseStorage.151" = type { %"struct.Eigen::internal::plain_array.152" }
%"struct.Eigen::internal::plain_array.152" = type { [9 x double] }

; Function Attrs: mustprogress nounwind ssp uwtable
define linkonce_odr noundef ptr @_ZN5Eigen12DenseStorageIdLi9ELi3ELi3ELi0EE4dataEv(ptr noundef nonnull align 8 dereferenceable(72) %0) #0 comdat align 2 {
  %2 = alloca ptr, align 8
  store ptr %0, ptr %2, align 8, !tbaa !810
  %3 = load ptr, ptr %2, align 8
  %4 = getelementptr inbounds nuw %"class.Eigen::DenseStorage.151", ptr %3, i32 0, i32 0
  %5 = getelementptr inbounds nuw %"struct.Eigen::internal::plain_array.152", ptr %4, i32 0, i32 0
  %6 = getelementptr inbounds [9 x double], ptr %5, i64 0, i64 0
  ret ptr %6
}

; Function Attrs: inlinehint mustprogress ssp uwtable
define linkonce_odr noundef nonnull align 8 dereferenceable(8) ptr @_ZN5Eigen15PlainObjectBaseINS_6MatrixIdLi3ELi3ELi0ELi3ELi3EEEE8coeffRefEl(ptr noundef nonnull align 8 dereferenceable(72) %0, i64 noundef %1) #9 comdat align 2 {
  %3 = alloca ptr, align 8
  %4 = alloca i64, align 8
  store ptr %0, ptr %3, align 8, !tbaa !808
  store i64 %1, ptr %4, align 8, !tbaa !47
  %5 = load ptr, ptr %3, align 8
  %6 = getelementptr inbounds nuw %"class.Eigen::PlainObjectBase.144", ptr %5, i32 0, i32 0
  %7 = call noundef ptr @_ZN5Eigen12DenseStorageIdLi9ELi3ELi3ELi0EE4dataEv(ptr noundef nonnull align 8 dereferenceable(72) %6)
  %8 = load i64, ptr %4, align 8, !tbaa !47
  %9 = getelementptr inbounds double, ptr %7, i64 %8
  ret ptr %9
}

; Function Attrs: mustprogress ssp uwtable
define noundef zeroext i1 @_ZN6open3d7utility16IJsonConvertible26EigenMatrix3dFromJsonArrayERN5Eigen6MatrixIdLi3ELi3ELi0ELi3ELi3EEERKN4Json5ValueE(ptr noundef nonnull align 8 dereferenceable(72) %0, ptr noundef nonnull align 8 dereferenceable(40) %1) #1 align 2 {
  %3 = alloca i1, align 1
  %4 = alloca ptr, align 8
  %5 = alloca ptr, align 8
  %6 = alloca i32, align 4
  store ptr %0, ptr %4, align 8, !tbaa !805
  store ptr %1, ptr %5, align 8, !tbaa !759
  %7 = load ptr, ptr %5, align 8, !tbaa !759
  %8 = call noundef i32 @_ZNK4Json5Value4sizeEv(ptr noundef nonnull align 8 dereferenceable(40) %7)
  %9 = icmp ne i32 %8, 9
  br i1 %9, label %10, label %11

10:                                               ; preds = %2
  store i1 false, ptr %3, align 1
  br label %29

11:                                               ; preds = %2
  call void @llvm.lifetime.start.p0(i64 4, ptr %6) #27
  store i32 0, ptr %6, align 4, !tbaa !35
  br label %12

12:                                               ; preds = %25, %11
  %13 = load i32, ptr %6, align 4, !tbaa !35
  %14 = icmp slt i32 %13, 9
  br i1 %14, label %16, label %15

15:                                               ; preds = %12
  call void @llvm.lifetime.end.p0(i64 4, ptr %6) #27
  br label %28

16:                                               ; preds = %12
  %17 = load ptr, ptr %5, align 8, !tbaa !759
  %18 = load i32, ptr %6, align 4, !tbaa !35
  %19 = call noundef nonnull align 8 dereferenceable(40) ptr @_ZNK4Json5ValueixEi(ptr noundef nonnull align 8 dereferenceable(40) %17, i32 noundef %18)
  %20 = call noundef double @_ZNK4Json5Value8asDoubleEv(ptr noundef nonnull align 8 dereferenceable(40) %19)
  %21 = load ptr, ptr %4, align 8, !tbaa !805
  %22 = load i32, ptr %6, align 4, !tbaa !35
  %23 = sext i32 %22 to i64
  %24 = call noundef nonnull align 8 dereferenceable(8) ptr @_ZN5Eigen15PlainObjectBaseINS_6MatrixIdLi3ELi3ELi0ELi3ELi3EEEE8coeffRefEl(ptr noundef nonnull align 8 dereferenceable(72) %21, i64 noundef %23)
  store double %20, ptr %24, align 8, !tbaa !136
  br label %25

25:                                               ; preds = %16
  %26 = load i32, ptr %6, align 4, !tbaa !35
  %27 = add nsw i32 %26, 1
  store i32 %27, ptr %6, align 4, !tbaa !35
  br label %12, !llvm.loop !807

28:                                               ; preds = %15
  store i1 true, ptr %3, align 1
  br label %29

29:                                               ; preds = %28, %10
  %30 = load i1, ptr %3, align 1
  ret i1 %30
}